; Function Attrs: nofree norecurse nosync nounwind memory(argmem: readwrite) uwtable
define internal void @blend_divide_12bit(ptr noundef readonly captures(none) %0, i64 noundef %1, ptr noundef readonly captures(none) %2, i64 noundef %3, ptr noundef writeonly captures(none) %4, i64 noundef %5, i64 noundef %6, i64 noundef %7, ptr noundef readonly captures(none) %8, ptr readnone captures(none) %9) #6 {
  %11 = getelementptr inbounds nuw i8, ptr %8, i64 8
  %12 = load double, ptr %11, align 8, !tbaa !70
  %13 = fptrunc nsz double %12 to float
  %14 = lshr i64 %5, 1
  %15 = lshr i64 %1, 1
  %16 = lshr i64 %3, 1
  %17 = icmp sgt i64 %7, 0
  %18 = icmp sgt i64 %6, 0
  %or.cond = and i1 %17, %18
  br i1 %or.cond, label %.preheader.us, label %._crit_edge42

.preheader.us:                                    ; preds = %10, %._crit_edge.us
  %indvars.iv46 = phi i64 [ %indvars.iv.next47, %._crit_edge.us ], [ 0, %10 ]
  %.03240.us = phi ptr [ %38, %._crit_edge.us ], [ %4, %10 ]
  %.03339.us = phi ptr [ %40, %._crit_edge.us ], [ %2, %10 ]
  %.03438.us = phi ptr [ %39, %._crit_edge.us ], [ %0, %10 ]
  br label %19

19:                                               ; preds = %.preheader.us, %31
  %indvars.iv = phi i64 [ 0, %.preheader.us ], [ %indvars.iv.next, %31 ]
  %20 = getelementptr inbounds nuw i16, ptr %.03438.us, i64 %indvars.iv
  %21 = load i16, ptr %20, align 2, !tbaa !85
  %22 = uitofp i16 %21 to float
  %23 = getelementptr inbounds nuw i16, ptr %.03339.us, i64 %indvars.iv
  %24 = load i16, ptr %23, align 2, !tbaa !85
  %25 = icmp eq i16 %24, 0
  br i1 %25, label %._crit_edge, label %26

._crit_edge:                                      ; preds = %19
  %.pre = zext i16 %21 to i32
  br label %31

26:                                               ; preds = %19
  %27 = zext i16 %24 to i32
  %28 = zext i16 %21 to i32
  %29 = mul nuw nsw i32 %28, 4095
  %30 = udiv i32 %29, %27
  br label %31

31:                                               ; preds = %._crit_edge, %26
  %.pre-phi = phi i32 [ %.pre, %._crit_edge ], [ %28, %26 ]
  %32 = phi i32 [ 4095, %._crit_edge ], [ %30, %26 ]
  %.0.i.us = tail call i32 @llvm.umin.i32(i32 %32, i32 4095)
  %33 = sub nsw i32 %.0.i.us, %.pre-phi
  %34 = sitofp i32 %33 to float
  %35 = tail call nsz float @llvm.fmuladd.f32(float %34, float %13, float %22)
  %36 = fptoui float %35 to i16
  %37 = getelementptr inbounds nuw i16, ptr %.03240.us, i64 %indvars.iv
  store i16 %36, ptr %37, align 2, !tbaa !85
  %indvars.iv.next = add nuw nsw i64 %indvars.iv, 1
  %exitcond.not = icmp eq i64 %indvars.iv.next, %6
  br i1 %exitcond.not, label %._crit_edge.us, label %19, !llvm.loop !346

._crit_edge.us:                                   ; preds = %31
  %38 = getelementptr inbounds nuw i16, ptr %.03240.us, i64 %14
  %39 = getelementptr inbounds nuw i16, ptr %.03438.us, i64 %15
  %40 = getelementptr inbounds nuw i16, ptr %.03339.us, i64 %16
  %indvars.iv.next47 = add nuw nsw i64 %indvars.iv46, 1
  %exitcond49.not = icmp eq i64 %indvars.iv.next47, %7
  br i1 %exitcond49.not, label %._crit_edge42, label %.preheader.us, !llvm.loop !347

._crit_edge42:                                    ; preds = %._crit_edge.us, %10
  ret void
}